Certificate:
    Data:
        Version: 3 (0x2)
        Serial Number:
            e7:57:8f:38:5f:e6:6a:25:0a:10:21:69:f6:bf:c5:c9
    Signature Algorithm: sha256WithRSAEncryption
        Issuer: C=CA, O=EDC, CN=Root CA
        Validity
            Not Before: Aug  2 19:37:41 2016 GMT
            Not After : Jul 31 19:37:41 2026 GMT
        Subject: C=CA, O=EDC, CN=Root CA
        Subject Public Key Info:
            Public Key Algorithm: rsaEncryption
                Public-Key: (4096 bit)
                Modulus:
                    00:cf:00:92:c2:15:60:c3:88:e1:27:09:e4:c4:97:
                    85:3e:22:af:7d:8f:9d:de:89:11:db:28:98:8c:e6:
                    ef:d3:a8:6f:e1:fa:10:e1:c6:a5:73:41:f2:9a:7b:
                    d0:b4:bc:1b:a2:30:8b:1b:48:9b:39:c1:9e:18:12:
                    80:3d:63:06:a2:0f:42:62:b4:10:7a:3f:a1:67:01:
                    ae:7e:e3:43:cf:81:f6:de:42:8d:1c:5c:24:8c:a7:
                    51:a7:bf:24:11:f7:a2:bf:a9:61:09:88:10:46:53:
                    07:bf:c1:02:74:df:8a:85:af:a1:2d:ed:43:36:55:
                    29:85:85:33:85:b4:fb:81:57:2a:27:85:03:47:a4:
                    8f:6e:c0:d2:40:6f:4e:8d:72:25:56:fc:4f:79:ab:
                    9b:b8:c8:1c:55:7e:55:bb:b6:92:88:a2:44:d2:ca:
                    6e:6a:25:bd:d9:17:b1:fd:77:5f:5d:fc:0b:4b:ad:
                    dd:f6:38:0c:4e:44:f7:51:78:52:93:fa:bb:60:71:
                    20:61:93:3d:af:1c:ab:20:08:af:92:19:a9:5d:a7:
                    76:9f:cc:e3:09:c2:e5:47:c1:8c:4d:bb:9f:13:4b:
                    a7:3f:4d:df:a6:2f:32:ee:a3:7e:3a:fb:b7:e1:70:
                    27:cd:ae:05:a5:f5:0d:00:bb:49:28:07:aa:77:20:
                    60:15:b2:5c:4a:5a:06:78:db:0d:cc:4a:89:07:12:
                    49:af:d5:5d:14:11:d0:42:29:9b:c4:5e:70:fc:39:
                    76:9f:4b:4a:53:fc:b1:93:53:8d:6c:02:79:12:e6:
                    c7:ee:3a:7f:fd:13:38:2d:fd:c3:21:97:eb:9f:f8:
                    3e:08:56:7c:f0:4a:ff:67:48:75:07:e4:6c:94:b4:
                    e5:b9:63:07:95:49:57:72:f9:48:36:8d:33:87:ac:
                    41:2b:2d:cd:92:72:64:2e:5d:ec:8e:49:8b:aa:30:
                    71:47:04:a5:53:39:bf:58:77:25:fc:f1:8c:10:73:
                    96:c1:ed:70:44:3b:04:d1:ca:cb:bc:0d:c5:ca:70:
                    eb:6f:29:a2:54:24:a8:f8:8a:bc:8a:e3:45:70:85:
                    a8:2c:68:60:d5:7a:de:81:6e:42:d3:84:5d:52:88:
                    1c:d7:50:c1:99:e9:77:d6:5f:c9:84:07:62:7c:8d:
                    13:5b:a1:09:f4:be:5a:26:2a:f2:e5:4b:a4:9a:37:
                    c2:46:27:2a:13:7f:64:57:a9:e5:fa:fa:19:67:64:
                    e8:5c:a6:fe:4c:7b:40:a7:7c:3e:2f:4d:6e:a7:92:
                    6e:7d:40:8d:7d:f4:c3:df:d9:b3:70:05:63:f0:33:
                    47:b6:eb:61:ab:50:52:73:4d:a7:af:f7:d2:04:c1:
                    a0:a2:e7
                Exponent: 65537 (0x10001)
        X509v3 extensions:
            X509v3 Basic Constraints: critical
                CA:TRUE
            X509v3 Key Usage: critical
                Certificate Sign, CRL Sign
            X509v3 Subject Key Identifier: 
                60:7F:5A:07:26:27:53:A6:45:B8:6B:EA:74:28:64:04:00:A9:16:15
    Signature Algorithm: sha256WithRSAEncryption
         2a:d1:01:43:b4:61:84:cd:8f:28:90:a7:48:6f:f3:d7:4d:11:
         17:f1:0a:93:33:73:12:9f:2e:0d:50:17:6c:4b:fe:99:01:69:
         00:50:fd:aa:09:9b:c4:df:a4:87:a8:69:b4:ee:6b:ed:34:21:
         24:4f:52:fc:9b:af:2a:0c:37:ca:3b:8b:01:92:b6:86:f3:55:
         cb:e5:78:1d:02:54:61:6d:cb:a0:92:c3:7b:58:33:e9:38:55:
         7a:04:3a:ae:76:06:fe:7c:f8:a5:a7:96:fc:7b:79:45:5b:29:
         6e:91:9b:78:ec:f4:64:22:27:1b:22:df:eb:aa:e7:6d:e5:e1:
         8c:93:74:fc:65:7d:28:ea:e1:e1:0a:a3:ba:18:1e:a9:bb:62:
         c1:38:4e:b3:26:de:09:fb:a0:33:b6:94:1e:d2:9e:5a:ac:0c:
         17:2f:9b:44:d6:3a:21:df:c7:f6:24:2e:e8:5e:63:f1:ce:92:
         8d:7a:01:f1:51:a3:97:d1:88:e2:90:93:0c:88:7f:20:cb:0e:
         a1:d1:b3:10:60:58:30:c1:72:46:9b:80:30:3a:9f:83:65:f4:
         34:b2:e9:82:e3:e8:5e:e0:21:b6:84:25:2a:d0:d0:8f:88:b0:
         e3:31:d5:c7:f2:f8:60:6a:71:b7:88:9d:b1:b5:44:4f:4b:3f:
         20:cc:79:14:86:0b:4e:a4:92:8a:eb:4b:6c:41:0f:f3:39:47:
         9c:28:64:c5:dc:5a:80:9a:7d:63:9a:37:d5:e7:7e:c0:08:18:
         63:dd:23:23:61:df:79:19:b8:11:1a:46:96:2a:33:3a:cb:45:
         3a:d1:aa:33:19:2e:ed:1d:20:14:aa:0b:6c:5c:d9:5d:3b:d7:
         c1:b3:07:63:96:aa:24:f1:7e:b1:e2:15:20:f1:61:c5:b3:01:
         87:ab:38:b4:ec:f8:6c:21:91:84:6d:2b:58:51:0b:b0:f4:b4:
         94:34:18:60:ab:f7:a3:96:c2:0b:88:ae:65:c0:87:66:29:e9:
         7e:15:68:ce:9b:52:87:29:fc:88:7c:38:c4:39:2d:87:4f:04:
         be:e8:a2:9f:6a:d6:b4:c2:32:5e:59:43:60:f8:ea:05:7e:93:
         0b:8d:ff:b1:19:33:85:32:e4:9b:6b:c1:ab:58:b7:e7:01:b1:
         31:4c:cf:e1:f0:26:74:8e:98:2f:8f:16:8f:d7:87:d8:61:d3:
         bb:63:81:ad:80:73:3a:0f:95:c6:e3:63:96:39:7a:2b:d4:01:
         c4:06:2f:58:93:12:0b:30:1f:0e:36:03:32:5b:55:f6:bc:7d:
         61:ad:bb:d8:23:46:7e:48:cf:52:d0:3a:c7:37:20:93:0b:59:
         82:7d:2c:7e:2a:f0:d6:e6
-----BEGIN CERTIFICATE-----
MIIFJzCCAw+gAwIBAgIRAOdXjzhf5molChAhafa/xckwDQYJKoZIhvcNAQELBQAw
LTELMAkGA1UEBhMCQ0ExDDAKBgNVBAoMA0VEQzEQMA4GA1UEAwwHUm9vdCBDQTAe
Fw0xNjA4MDIxOTM3NDFaFw0yNjA3MzExOTM3NDFaMC0xCzAJBgNVBAYTAkNBMQww
CgYDVQQKDANFREMxEDAOBgNVBAMMB1Jvb3QgQ0EwggIiMA0GCSqGSIb3DQEBAQUA
A4ICDwAwggIKAoICAQDPAJLCFWDDiOEnCeTEl4U+Iq99j53eiRHbKJiM5u/TqG/h
+hDhxqVzQfKae9C0vBuiMIsbSJs5wZ4YEoA9YwaiD0JitBB6P6FnAa5+40PPgfbe
Qo0cXCSMp1GnvyQR96K/qWEJiBBGUwe/wQJ034qFr6Et7UM2VSmFhTOFtPuBVyon
hQNHpI9uwNJAb06NciVW/E95q5u4yBxVflW7tpKIokTSym5qJb3ZF7H9d19d/AtL
rd32OAxORPdReFKT+rtgcSBhkz2vHKsgCK+SGaldp3afzOMJwuVHwYxNu58TS6c/
Td+mLzLuo346+7fhcCfNrgWl9Q0Au0koB6p3IGAVslxKWgZ42w3MSokHEkmv1V0U
EdBCKZvEXnD8OXafS0pT/LGTU41sAnkS5sfuOn/9Ezgt/cMhl+uf+D4IVnzwSv9n
SHUH5GyUtOW5YweVSVdy+Ug2jTOHrEErLc2ScmQuXeyOSYuqMHFHBKVTOb9YdyX8
8YwQc5bB7XBEOwTRysu8DcXKcOtvKaJUJKj4iryK40VwhagsaGDVet6BbkLThF1S
iBzXUMGZ6XfWX8mEB2J8jRNboQn0vlomKvLlS6SaN8JGJyoTf2RXqeX6+hlnZOhc
pv5Me0CnfD4vTW6nkm59QI199MPf2bNwBWPwM0e262GrUFJzTaev99IEwaCi5wID
AQABo0IwQDAPBgNVHRMBAf8EBTADAQH/MA4GA1UdDwEB/wQEAwIBBjAdBgNVHQ4E
FgQUYH9aByYnU6ZFuGvqdChkBACpFhUwDQYJKoZIhvcNAQELBQADggIBACrRAUO0
YYTNjyiQp0hv89dNERfxCpMzcxKfLg1QF2xL/pkBaQBQ/aoJm8TfpIeoabTua+00
ISRPUvybryoMN8o7iwGStobzVcvleB0CVGFty6CSw3tYM+k4VXoEOq52Bv58+KWn
lvx7eUVbKW6Rm3js9GQiJxsi3+uq523l4YyTdPxlfSjq4eEKo7oYHqm7YsE4TrMm
3gn7oDO2lB7SnlqsDBcvm0TWOiHfx/YkLuheY/HOko16AfFRo5fRiOKQkwyIfyDL
DqHRsxBgWDDBckabgDA6n4Nl9DSy6YLj6F7gIbaEJSrQ0I+IsOMx1cfy+GBqcbeI
nbG1RE9LPyDMeRSGC06kkorrS2xBD/M5R5woZMXcWoCafWOaN9XnfsAIGGPdIyNh
33kZuBEaRpYqMzrLRTrRqjMZLu0dIBSqC2xc2V0718GzB2OWqiTxfrHiFSDxYcWz
AYerOLTs+GwhkYRtK1hRC7D0tJQ0GGCr96OWwguIrmXAh2Yp6X4VaM6bUocp/Ih8
OMQ5LYdPBL7oop9q1rTCMl5ZQ2D46gV+kwuN/7EZM4Uy5JtrwatYt+cBsTFMz+Hw
JnSOmC+PFo/Xh9hh07tjga2AczoPlcbjY5Y5eivUAcQGL1iTEgswHw42AzJbVfa8
fWGtu9gjRn5Iz1LQOsc3IJMLWYJ9LH4q8Nbm
-----END CERTIFICATE-----
